target datalayout = "e-m:e-p270:32:32-p271:32:32-p272:64:64-i64:64-i128:128-f80:128-n8:16:32:64-S128"
target triple = "x86_64-pc-linux-gnu"

%struct.expert_field = type { i32, i32 }

@ei_nas_5gs_extraneous_data = internal global %struct.expert_field zeroinitializer, align 4
@hf_nas_5gs_sor_mac_iue = internal global i32 0, align 4
@hf_nas_5gs_sor_mac_iausf = internal global i32 0, align 4
@hf_nas_5gs_counter_sor = internal global i32 0, align 4
@hf_nas_5gs_sor_sec_pkt = internal global i32 0, align 4
@hf_nas_5gs_sor_plmn_id_act_len = internal global i32 0, align 4
@hf_nas_5gs_sor_cmci_len = internal global i32 0, align 4
@hf_nas_5gs_sor_cmci_payload = internal global i32 0, align 4
@hf_nas_5gs_sor_snpn_si_len = internal global i32 0, align 4
@hf_nas_5gs_sor_snpn_si_payload = internal global i32 0, align 4
@hf_nas_5gs_sor_snpn_si_ls_len = internal global i32 0, align 4
@hf_nas_5gs_sor_snpn_si_ls_payload = internal global i32 0, align 4
@ett_nas_5gs_mm_sor = internal global i32 0, align 4
@de_nas_5gs_mm_sor_transp_cont.flags_oct_o = internal constant [5 x ptr] [ptr @hf_nas_5gs_sor_sssli, ptr @hf_nas_5gs_sor_sssi, ptr @hf_nas_5gs_sor_sscmi, ptr @hf_nas_5gs_sor_si, ptr null], align 16
@.str.1726 = private unnamed_addr constant [13 x i8] c"List item %u\00", align 1

; Function Attrs: null_pointer_is_valid sspstrong uwtable
define internal zeroext i16 @de_nas_5gs_mm_sor_transp_cont(ptr noundef %0, ptr noundef %1, ptr noundef %2, i32 noundef %3, i32 noundef %4, ptr noundef %5, i32 noundef %6) #0 {
  %8 = alloca ptr, align 8
  %9 = alloca ptr, align 8
  %10 = alloca ptr, align 8
  %11 = alloca i32, align 4
  %12 = alloca i32, align 4
  %13 = alloca ptr, align 8
  %14 = alloca i32, align 4
  %15 = alloca ptr, align 8
  %16 = alloca i8, align 1
  %17 = alloca i8, align 1
  %18 = alloca i8, align 1
  %19 = alloca i8, align 1
  %20 = alloca i32, align 4
  %21 = alloca i32, align 4
  %22 = alloca i32, align 4
  %23 = alloca i32, align 4
  %24 = alloca i64, align 8
  store ptr %0, ptr %8, align 8
  store ptr %1, ptr %9, align 8
  store ptr %2, ptr %10, align 8
  store i32 %3, ptr %11, align 4
  store i32 %4, ptr %12, align 4
  store ptr %5, ptr %13, align 8
  store i32 %6, ptr %14, align 4
  call void @llvm.lifetime.start.p0(i64 8, ptr %15) #11
  call void @llvm.lifetime.start.p0(i64 1, ptr %16) #11
  call void @llvm.lifetime.start.p0(i64 1, ptr %17) #11
  call void @llvm.lifetime.start.p0(i64 1, ptr %18) #11
  call void @llvm.lifetime.start.p0(i64 1, ptr %19) #11
  call void @llvm.lifetime.start.p0(i64 4, ptr %20) #11
  %25 = load i32, ptr %11, align 4
  store i32 %25, ptr %20, align 4
  call void @llvm.lifetime.start.p0(i64 4, ptr %21) #11
  store i32 1, ptr %21, align 4
  %26 = load ptr, ptr %8, align 8
  %27 = load i32, ptr %11, align 4
  %28 = call zeroext i8 @tvb_get_uint8(ptr noundef %26, i32 noundef %27)
  store i8 %28, ptr %16, align 1
  %29 = load i8, ptr %16, align 1
  %30 = zext i8 %29 to i32
  %31 = and i32 %30, 1
  %32 = trunc i32 %31 to i8
  store i8 %32, ptr %17, align 1
  %33 = load i8, ptr %17, align 1
  %34 = zext i8 %33 to i32
  %35 = icmp eq i32 %34, 0
  br i1 %35, label %36, label %228

36:                                               ; preds = %7
  %37 = load ptr, ptr %9, align 8
  %38 = load ptr, ptr %8, align 8
  %39 = load i32, ptr %20, align 4
  call void @proto_tree_add_bitmask_list(ptr noundef %37, ptr noundef %38, i32 noundef %39, i32 noundef 1, ptr noundef @de_nas_5gs_mm_sor_transp_cont.flags_dt0, i32 noundef 0)
  %40 = load i32, ptr %20, align 4
  %41 = add i32 %40, 1
  store i32 %41, ptr %20, align 4
  %42 = load i8, ptr %16, align 1
  %43 = zext i8 %42 to i32
  %44 = and i32 %43, 4
  %45 = ashr i32 %44, 2
  %46 = trunc i32 %45 to i8
  store i8 %46, ptr %18, align 1
  %47 = load i8, ptr %16, align 1
  %48 = zext i8 %47 to i32
  %49 = and i32 %48, 16
  %50 = ashr i32 %49, 4
  %51 = trunc i32 %50 to i8
  store i8 %51, ptr %19, align 1
  %52 = load ptr, ptr %9, align 8
  %53 = load i32, ptr @hf_nas_5gs_sor_mac_iausf, align 4
  %54 = load ptr, ptr %8, align 8
  %55 = load i32, ptr %20, align 4
  %56 = call ptr @proto_tree_add_item(ptr noundef %52, i32 noundef %53, ptr noundef %54, i32 noundef %55, i32 noundef 16, i32 noundef 0)
  %57 = load i32, ptr %20, align 4
  %58 = add i32 %57, 16
  store i32 %58, ptr %20, align 4
  %59 = load ptr, ptr %9, align 8
  %60 = load i32, ptr @hf_nas_5gs_counter_sor, align 4
  %61 = load ptr, ptr %8, align 8
  %62 = load i32, ptr %20, align 4
  %63 = call ptr @proto_tree_add_item(ptr noundef %59, i32 noundef %60, ptr noundef %61, i32 noundef %62, i32 noundef 2, i32 noundef 0)
  %64 = load i32, ptr %20, align 4
  %65 = add i32 %64, 2
  store i32 %65, ptr %20, align 4
  %66 = load i8, ptr %18, align 1
  %67 = zext i8 %66 to i32
  %68 = icmp eq i32 %67, 0
  br i1 %68, label %69, label %81

69:                                               ; preds = %36
  %70 = load ptr, ptr %9, align 8
  %71 = load i32, ptr @hf_nas_5gs_sor_sec_pkt, align 4
  %72 = load ptr, ptr %8, align 8
  %73 = load i32, ptr %20, align 4
  %74 = load i32, ptr %12, align 4
  %75 = sub i32 %74, 19
  %76 = call ptr @proto_tree_add_item(ptr noundef %70, i32 noundef %71, ptr noundef %72, i32 noundef %73, i32 noundef %75, i32 noundef 0)
  %77 = load i32, ptr %20, align 4
  %78 = load i32, ptr %12, align 4
  %79 = sub i32 %78, 19
  %80 = add i32 %77, %79
  store i32 %80, ptr %20, align 4
  br label %227

81:                                               ; preds = %36
  %82 = load i8, ptr %19, align 1
  %83 = zext i8 %82 to i32
  %84 = icmp eq i32 %83, 1
  br i1 %84, label %85, label %194

85:                                               ; preds = %81
  call void @llvm.lifetime.start.p0(i64 4, ptr %22) #11
  call void @llvm.lifetime.start.p0(i64 4, ptr %23) #11
  call void @llvm.lifetime.start.p0(i64 8, ptr %24) #11
  %86 = load ptr, ptr %9, align 8
  %87 = load i32, ptr @hf_nas_5gs_sor_plmn_id_act_len, align 4
  %88 = load ptr, ptr %8, align 8
  %89 = load i32, ptr %20, align 4
  %90 = call ptr @proto_tree_add_item_ret_uint(ptr noundef %86, i32 noundef %87, ptr noundef %88, i32 noundef %89, i32 noundef 1, i32 noundef 0, ptr noundef %22)
  %91 = load i32, ptr %20, align 4
  %92 = add i32 %91, 1
  store i32 %92, ptr %20, align 4
  br label %93

93:                                               ; preds = %99, %85
  %94 = load i32, ptr %20, align 4
  %95 = load i32, ptr %11, align 4
  %96 = sub i32 %94, %95
  %97 = load i32, ptr %22, align 4
  %98 = icmp ult i32 %96, %97
  br i1 %98, label %99, label %125

99:                                               ; preds = %93
  %100 = load ptr, ptr %9, align 8
  %101 = load ptr, ptr %8, align 8
  %102 = load i32, ptr %20, align 4
  %103 = load i32, ptr @ett_nas_5gs_mm_sor, align 4
  %104 = load i32, ptr %21, align 4
  %105 = call ptr (ptr, ptr, i32, i32, i32, ptr, ptr, ...) @proto_tree_add_subtree_format(ptr noundef %100, ptr noundef %101, i32 noundef %102, i32 noundef 5, i32 noundef %103, ptr noundef null, ptr noundef @.str.1726, i32 noundef %104)
  store ptr %105, ptr %15, align 8
  %106 = load ptr, ptr %8, align 8
  %107 = load ptr, ptr %10, align 8
  %108 = load ptr, ptr %15, align 8
  %109 = load i32, ptr %20, align 4
  %110 = call i32 @dissect_e212_mcc_mnc(ptr noundef %106, ptr noundef %107, ptr noundef %108, i32 noundef %109, i32 noundef 0, i1 noundef zeroext true)
  store i32 %110, ptr %20, align 4
  %111 = load i32, ptr %20, align 4
  %112 = add i32 %111, 3
  store i32 %112, ptr %20, align 4
  %113 = load ptr, ptr %9, align 8
  %114 = load ptr, ptr %8, align 8
  %115 = load i32, ptr %20, align 4
  call void @proto_tree_add_bitmask_list(ptr noundef %113, ptr noundef %114, i32 noundef %115, i32 noundef 1, ptr noundef @de_nas_5gs_mm_sor_transp_cont.flags_access_tech_1, i32 noundef 0)
  %116 = load i32, ptr %20, align 4
  %117 = add i32 %116, 1
  store i32 %117, ptr %20, align 4
  %118 = load ptr, ptr %9, align 8
  %119 = load ptr, ptr %8, align 8
  %120 = load i32, ptr %20, align 4
  call void @proto_tree_add_bitmask_list(ptr noundef %118, ptr noundef %119, i32 noundef %120, i32 noundef 1, ptr noundef @de_nas_5gs_mm_sor_transp_cont.flags_access_tech_2, i32 noundef 0)
  %121 = load i32, ptr %20, align 4
  %122 = add i32 %121, 1
  store i32 %122, ptr %20, align 4
  %123 = load i32, ptr %21, align 4
  %124 = add i32 %123, 1
  store i32 %124, ptr %21, align 4
  br label %93, !llvm.loop !36

125:                                              ; preds = %93
  %126 = load ptr, ptr %9, align 8
  %127 = load ptr, ptr %8, align 8
  %128 = load i32, ptr %20, align 4
  call void @proto_tree_add_bitmask_list_ret_uint64(ptr noundef %126, ptr noundef %127, i32 noundef %128, i32 noundef 1, ptr noundef @de_nas_5gs_mm_sor_transp_cont.flags_oct_o, i32 noundef 0, ptr noundef %24)
  %129 = load i32, ptr %20, align 4
  %130 = add i32 %129, 1
  store i32 %130, ptr %20, align 4
  %131 = load i64, ptr %24, align 8
  %132 = and i64 %131, 1
  %133 = icmp ne i64 %132, 0
  br i1 %133, label %134, label %151

134:                                              ; preds = %125
  %135 = load ptr, ptr %9, align 8
  %136 = load i32, ptr @hf_nas_5gs_sor_cmci_len, align 4
  %137 = load ptr, ptr %8, align 8
  %138 = load i32, ptr %20, align 4
  %139 = call ptr @proto_tree_add_item_ret_uint(ptr noundef %135, i32 noundef %136, ptr noundef %137, i32 noundef %138, i32 noundef 2, i32 noundef 0, ptr noundef %23)
  %140 = load i32, ptr %20, align 4
  %141 = add i32 %140, 2
  store i32 %141, ptr %20, align 4
  %142 = load ptr, ptr %9, align 8
  %143 = load i32, ptr @hf_nas_5gs_sor_cmci_payload, align 4
  %144 = load ptr, ptr %8, align 8
  %145 = load i32, ptr %20, align 4
  %146 = load i32, ptr %12, align 4
  %147 = call ptr @proto_tree_add_item(ptr noundef %142, i32 noundef %143, ptr noundef %144, i32 noundef %145, i32 noundef %146, i32 noundef 0)
  %148 = load i32, ptr %12, align 4
  %149 = load i32, ptr %20, align 4
  %150 = add i32 %149, %148
  store i32 %150, ptr %20, align 4
  br label %151

151:                                              ; preds = %134, %125
  %152 = load i64, ptr %24, align 8
  %153 = and i64 %152, 4
  %154 = icmp ne i64 %153, 0
  br i1 %154, label %155, label %172

155:                                              ; preds = %151
  %156 = load ptr, ptr %9, align 8
  %157 = load i32, ptr @hf_nas_5gs_sor_snpn_si_len, align 4
  %158 = load ptr, ptr %8, align 8
  %159 = load i32, ptr %20, align 4
  %160 = call ptr @proto_tree_add_item_ret_uint(ptr noundef %156, i32 noundef %157, ptr noundef %158, i32 noundef %159, i32 noundef 2, i32 noundef 0, ptr noundef %23)
  %161 = load i32, ptr %20, align 4
  %162 = add i32 %161, 2
  store i32 %162, ptr %20, align 4
  %163 = load ptr, ptr %9, align 8
  %164 = load i32, ptr @hf_nas_5gs_sor_snpn_si_payload, align 4
  %165 = load ptr, ptr %8, align 8
  %166 = load i32, ptr %20, align 4
  %167 = load i32, ptr %12, align 4
  %168 = call ptr @proto_tree_add_item(ptr noundef %163, i32 noundef %164, ptr noundef %165, i32 noundef %166, i32 noundef %167, i32 noundef 0)
  %169 = load i32, ptr %12, align 4
  %170 = load i32, ptr %20, align 4
  %171 = add i32 %170, %169
  store i32 %171, ptr %20, align 4
  br label %172

172:                                              ; preds = %155, %151
  %173 = load i64, ptr %24, align 8
  %174 = and i64 %173, 8
  %175 = icmp ne i64 %174, 0
  br i1 %175, label %176, label %193

176:                                              ; preds = %172
  %177 = load ptr, ptr %9, align 8
  %178 = load i32, ptr @hf_nas_5gs_sor_snpn_si_ls_len, align 4
  %179 = load ptr, ptr %8, align 8
  %180 = load i32, ptr %20, align 4
  %181 = call ptr @proto_tree_add_item_ret_uint(ptr noundef %177, i32 noundef %178, ptr noundef %179, i32 noundef %180, i32 noundef 2, i32 noundef 0, ptr noundef %23)
  %182 = load i32, ptr %20, align 4
  %183 = add i32 %182, 2
  store i32 %183, ptr %20, align 4
  %184 = load ptr, ptr %9, align 8
  %185 = load i32, ptr @hf_nas_5gs_sor_snpn_si_ls_payload, align 4
  %186 = load ptr, ptr %8, align 8
  %187 = load i32, ptr %20, align 4
  %188 = load i32, ptr %12, align 4
  %189 = call ptr @proto_tree_add_item(ptr noundef %184, i32 noundef %185, ptr noundef %186, i32 noundef %187, i32 noundef %188, i32 noundef 0)
  %190 = load i32, ptr %12, align 4
  %191 = load i32, ptr %20, align 4
  %192 = add i32 %191, %190
  store i32 %192, ptr %20, align 4
  br label %193

193:                                              ; preds = %176, %172
  call void @llvm.lifetime.end.p0(i64 8, ptr %24) #11
  call void @llvm.lifetime.end.p0(i64 4, ptr %23) #11
  call void @llvm.lifetime.end.p0(i64 4, ptr %22) #11
  br label %226

194:                                              ; preds = %81
  br label %195

195:                                              ; preds = %201, %194
  %196 = load i32, ptr %20, align 4
  %197 = load i32, ptr %11, align 4
  %198 = sub i32 %196, %197
  %199 = load i32, ptr %12, align 4
  %200 = icmp ult i32 %198, %199
  br i1 %200, label %201, label %225

201:                                              ; preds = %195
  %202 = load ptr, ptr %9, align 8
  %203 = load ptr, ptr %8, align 8
  %204 = load i32, ptr %20, align 4
  %205 = load i32, ptr @ett_nas_5gs_mm_sor, align 4
  %206 = load i32, ptr %21, align 4
  %207 = call ptr (ptr, ptr, i32, i32, i32, ptr, ptr, ...) @proto_tree_add_subtree_format(ptr noundef %202, ptr noundef %203, i32 noundef %204, i32 noundef 5, i32 noundef %205, ptr noundef null, ptr noundef @.str.1726, i32 noundef %206)
  store ptr %207, ptr %15, align 8
  %208 = load ptr, ptr %8, align 8
  %209 = load ptr, ptr %10, align 8
  %210 = load ptr, ptr %15, align 8
  %211 = load i32, ptr %20, align 4
  %212 = call i32 @dissect_e212_mcc_mnc(ptr noundef %208, ptr noundef %209, ptr noundef %210, i32 noundef %211, i32 noundef 0, i1 noundef zeroext true)
  store i32 %212, ptr %20, align 4
  %213 = load ptr, ptr %9, align 8
  %214 = load ptr, ptr %8, align 8
  %215 = load i32, ptr %20, align 4
  call void @proto_tree_add_bitmask_list(ptr noundef %213, ptr noundef %214, i32 noundef %215, i32 noundef 1, ptr noundef @de_nas_5gs_mm_sor_transp_cont.flags_access_tech_1, i32 noundef 0)
  %216 = load i32, ptr %20, align 4
  %217 = add i32 %216, 1
  store i32 %217, ptr %20, align 4
  %218 = load ptr, ptr %9, align 8
  %219 = load ptr, ptr %8, align 8
  %220 = load i32, ptr %20, align 4
  call void @proto_tree_add_bitmask_list(ptr noundef %218, ptr noundef %219, i32 noundef %220, i32 noundef 1, ptr noundef @de_nas_5gs_mm_sor_transp_cont.flags_access_tech_2, i32 noundef 0)
  %221 = load i32, ptr %20, align 4
  %222 = add i32 %221, 1
  store i32 %222, ptr %20, align 4
  %223 = load i32, ptr %21, align 4
  %224 = add i32 %223, 1
  store i32 %224, ptr %21, align 4
  br label %195, !llvm.loop !37

225:                                              ; preds = %195
  br label %226

226:                                              ; preds = %225, %193
  br label %227

227:                                              ; preds = %226, %69
  br label %241

228:                                              ; preds = %7
  %229 = load ptr, ptr %9, align 8
  %230 = load ptr, ptr %8, align 8
  %231 = load i32, ptr %20, align 4
  call void @proto_tree_add_bitmask_list(ptr noundef %229, ptr noundef %230, i32 noundef %231, i32 noundef 1, ptr noundef @de_nas_5gs_mm_sor_transp_cont.flags_dt1, i32 noundef 0)
  %232 = load i32, ptr %20, align 4
  %233 = add i32 %232, 1
  store i32 %233, ptr %20, align 4
  %234 = load ptr, ptr %9, align 8
  %235 = load i32, ptr @hf_nas_5gs_sor_mac_iue, align 4
  %236 = load ptr, ptr %8, align 8
  %237 = load i32, ptr %20, align 4
  %238 = call ptr @proto_tree_add_item(ptr noundef %234, i32 noundef %235, ptr noundef %236, i32 noundef %237, i32 noundef 16, i32 noundef 0)
  %239 = load i32, ptr %20, align 4
  %240 = add i32 %239, 16
  store i32 %240, ptr %20, align 4
  br label %241

241:                                              ; preds = %228, %227
  %242 = load i32, ptr %12, align 4
  %243 = load i32, ptr %20, align 4
  %244 = load i32, ptr %11, align 4
  %245 = sub i32 %243, %244
  %246 = icmp ugt i32 %242, %245
  br i1 %246, label %247, label %265

247:                                              ; preds = %241
  %248 = load ptr, ptr %9, align 8
  %249 = load ptr, ptr %10, align 8
  %250 = load ptr, ptr %8, align 8
  %251 = load i32, ptr %20, align 4
  %252 = load i32, ptr %12, align 4
  %253 = load i32, ptr %20, align 4
  %254 = load i32, ptr %11, align 4
  %255 = sub i32 %253, %254
  %256 = sub i32 %252, %255
  %257 = call ptr @proto_tree_add_expert(ptr noundef %248, ptr noundef %249, ptr noundef @ei_nas_5gs_extraneous_data, ptr noundef %250, i32 noundef %251, i32 noundef %256)
  %258 = load i32, ptr %12, align 4
  %259 = load i32, ptr %20, align 4
  %260 = load i32, ptr %11, align 4
  %261 = sub i32 %259, %260
  %262 = sub i32 %258, %261
  %263 = load i32, ptr %20, align 4
  %264 = add i32 %263, %262
  store i32 %264, ptr %20, align 4
  br label %265

265:                                              ; preds = %247, %241
  %266 = load i32, ptr %20, align 4
  %267 = load i32, ptr %11, align 4
  %268 = sub i32 %266, %267
  %269 = trunc i32 %268 to i16
  call void @llvm.lifetime.end.p0(i64 4, ptr %21) #11
  call void @llvm.lifetime.end.p0(i64 4, ptr %20) #11
  call void @llvm.lifetime.end.p0(i64 1, ptr %19) #11
  call void @llvm.lifetime.end.p0(i64 1, ptr %18) #11
  call void @llvm.lifetime.end.p0(i64 1, ptr %17) #11
  call void @llvm.lifetime.end.p0(i64 1, ptr %16) #11
  call void @llvm.lifetime.end.p0(i64 8, ptr %15) #11
  ret i16 %269
}