; Function Attrs: null_pointer_is_valid sspstrong uwtable
define internal zeroext i16 @de_nas_5gs_mm_sor_transp_cont(ptr noundef %0, ptr noundef %1, ptr noundef %2, i32 noundef %3, i32 noundef %4, ptr readnone captures(none) %5, i32 %6) #0 {
  %8 = alloca i32, align 4
  %9 = alloca i32, align 4
  %10 = alloca i64, align 8
  %11 = tail call zeroext i8 @tvb_get_uint8(ptr noundef %0, i32 noundef %3)
  %12 = and i8 %11, 1
  %13 = icmp eq i8 %12, 0
  %14 = add i32 %3, 1
  %15 = add i32 %3, 17
  br i1 %13, label %16, label %87

16:                                               ; preds = %7
  tail call void @proto_tree_add_bitmask_list(ptr noundef %1, ptr noundef %0, i32 noundef %3, i32 noundef 1, ptr noundef nonnull @de_nas_5gs_mm_sor_transp_cont.flags_dt0, i32 noundef 0)
  %17 = load i32, ptr @hf_nas_5gs_sor_mac_iausf, align 4
  %18 = tail call ptr @proto_tree_add_item(ptr noundef %1, i32 noundef %17, ptr noundef %0, i32 noundef %14, i32 noundef 16, i32 noundef 0)
  %19 = load i32, ptr @hf_nas_5gs_counter_sor, align 4
  %20 = tail call ptr @proto_tree_add_item(ptr noundef %1, i32 noundef %19, ptr noundef %0, i32 noundef %15, i32 noundef 2, i32 noundef 0)
  %21 = add i32 %3, 19
  %22 = and i8 %11, 4
  %23 = icmp eq i8 %22, 0
  br i1 %23, label %24, label %29

24:                                               ; preds = %16
  %25 = load i32, ptr @hf_nas_5gs_sor_sec_pkt, align 4
  %26 = add i32 %4, -19
  %27 = tail call ptr @proto_tree_add_item(ptr noundef %1, i32 noundef %25, ptr noundef %0, i32 noundef %21, i32 noundef %26, i32 noundef 0)
  %28 = add i32 %4, %3
  br label %.loopexit

29:                                               ; preds = %16
  %30 = and i8 %11, 16
  %.not = icmp eq i8 %30, 0
  br i1 %.not, label %.preheader, label %32

.preheader:                                       ; preds = %29
  %31 = icmp ugt i32 %4, 19
  br i1 %31, label %.lr.ph139, label %.loopexit

32:                                               ; preds = %29
  call void @llvm.lifetime.start.p0(i64 4, ptr nonnull %8) #12
  call void @llvm.lifetime.start.p0(i64 4, ptr nonnull %9) #12
  call void @llvm.lifetime.start.p0(i64 8, ptr nonnull %10) #12
  %33 = load i32, ptr @hf_nas_5gs_sor_plmn_id_act_len, align 4
  %34 = call ptr @proto_tree_add_item_ret_uint(ptr noundef %1, i32 noundef %33, ptr noundef %0, i32 noundef %21, i32 noundef 1, i32 noundef 0, ptr noundef nonnull %8)
  %35 = add i32 %3, 20
  %36 = load i32, ptr %8, align 4
  %37 = icmp ugt i32 %36, 20
  br i1 %37, label %.lr.ph, label %._crit_edge

.lr.ph:                                           ; preds = %32, %.lr.ph
  %.0136 = phi i32 [ %44, %.lr.ph ], [ 1, %32 ]
  %.0128135 = phi i32 [ %43, %.lr.ph ], [ %35, %32 ]
  %38 = load i32, ptr @ett_nas_5gs_mm_sor, align 4
  %39 = call ptr (ptr, ptr, i32, i32, i32, ptr, ptr, ...) @proto_tree_add_subtree_format(ptr noundef %1, ptr noundef %0, i32 noundef %.0128135, i32 noundef 5, i32 noundef %38, ptr noundef null, ptr noundef nonnull @.str.1726, i32 noundef %.0136)
  %40 = call i32 @dissect_e212_mcc_mnc(ptr noundef %0, ptr noundef %2, ptr noundef %39, i32 noundef %.0128135, i32 noundef 0, i1 noundef zeroext true)
  %41 = add i32 %40, 3
  call void @proto_tree_add_bitmask_list(ptr noundef %1, ptr noundef %0, i32 noundef %41, i32 noundef 1, ptr noundef nonnull @de_nas_5gs_mm_sor_transp_cont.flags_access_tech_1, i32 noundef 0)
  %42 = add i32 %40, 4
  call void @proto_tree_add_bitmask_list(ptr noundef %1, ptr noundef %0, i32 noundef %42, i32 noundef 1, ptr noundef nonnull @de_nas_5gs_mm_sor_transp_cont.flags_access_tech_2, i32 noundef 0)
  %43 = add i32 %40, 5
  %44 = add i32 %.0136, 1
  %45 = sub i32 %43, %3
  %46 = load i32, ptr %8, align 4
  %47 = icmp ult i32 %45, %46
  br i1 %47, label %.lr.ph, label %._crit_edge, !llvm.loop !36

._crit_edge:                                      ; preds = %.lr.ph, %32
  %.0128.lcssa = phi i32 [ %35, %32 ], [ %43, %.lr.ph ]
  call void @proto_tree_add_bitmask_list_ret_uint64(ptr noundef %1, ptr noundef %0, i32 noundef %.0128.lcssa, i32 noundef 1, ptr noundef nonnull @de_nas_5gs_mm_sor_transp_cont.flags_oct_o, i32 noundef 0, ptr noundef nonnull %10)
  %48 = add i32 %.0128.lcssa, 1
  %49 = load i64, ptr %10, align 8
  %50 = and i64 %49, 1
  %.not132 = icmp eq i64 %50, 0
  br i1 %.not132, label %58, label %51

51:                                               ; preds = %._crit_edge
  %52 = load i32, ptr @hf_nas_5gs_sor_cmci_len, align 4
  %53 = call ptr @proto_tree_add_item_ret_uint(ptr noundef %1, i32 noundef %52, ptr noundef %0, i32 noundef %48, i32 noundef 2, i32 noundef 0, ptr noundef nonnull %9)
  %54 = add i32 %.0128.lcssa, 3
  %55 = load i32, ptr @hf_nas_5gs_sor_cmci_payload, align 4
  %56 = call ptr @proto_tree_add_item(ptr noundef %1, i32 noundef %55, ptr noundef %0, i32 noundef %54, i32 noundef %4, i32 noundef 0)
  %57 = add i32 %54, %4
  %.pre = load i64, ptr %10, align 8
  br label %58

58:                                               ; preds = %51, %._crit_edge
  %59 = phi i64 [ %.pre, %51 ], [ %49, %._crit_edge ]
  %.1129 = phi i32 [ %57, %51 ], [ %48, %._crit_edge ]
  %60 = and i64 %59, 4
  %.not133 = icmp eq i64 %60, 0
  br i1 %.not133, label %68, label %61

61:                                               ; preds = %58
  %62 = load i32, ptr @hf_nas_5gs_sor_snpn_si_len, align 4
  %63 = call ptr @proto_tree_add_item_ret_uint(ptr noundef %1, i32 noundef %62, ptr noundef %0, i32 noundef %.1129, i32 noundef 2, i32 noundef 0, ptr noundef nonnull %9)
  %64 = add i32 %.1129, 2
  %65 = load i32, ptr @hf_nas_5gs_sor_snpn_si_payload, align 4
  %66 = call ptr @proto_tree_add_item(ptr noundef %1, i32 noundef %65, ptr noundef %0, i32 noundef %64, i32 noundef %4, i32 noundef 0)
  %67 = add i32 %64, %4
  %.pre142 = load i64, ptr %10, align 8
  br label %68

68:                                               ; preds = %61, %58
  %69 = phi i64 [ %.pre142, %61 ], [ %59, %58 ]
  %.2 = phi i32 [ %67, %61 ], [ %.1129, %58 ]
  %70 = and i64 %69, 8
  %.not134 = icmp eq i64 %70, 0
  br i1 %.not134, label %78, label %71

71:                                               ; preds = %68
  %72 = load i32, ptr @hf_nas_5gs_sor_snpn_si_ls_len, align 4
  %73 = call ptr @proto_tree_add_item_ret_uint(ptr noundef %1, i32 noundef %72, ptr noundef %0, i32 noundef %.2, i32 noundef 2, i32 noundef 0, ptr noundef nonnull %9)
  %74 = add i32 %.2, 2
  %75 = load i32, ptr @hf_nas_5gs_sor_snpn_si_ls_payload, align 4
  %76 = call ptr @proto_tree_add_item(ptr noundef %1, i32 noundef %75, ptr noundef %0, i32 noundef %74, i32 noundef %4, i32 noundef 0)
  %77 = add i32 %74, %4
  br label %78

78:                                               ; preds = %71, %68
  %.3 = phi i32 [ %77, %71 ], [ %.2, %68 ]
  call void @llvm.lifetime.end.p0(i64 8, ptr nonnull %10) #12
  call void @llvm.lifetime.end.p0(i64 4, ptr nonnull %9) #12
  call void @llvm.lifetime.end.p0(i64 4, ptr nonnull %8) #12
  br label %.loopexit

.lr.ph139:                                        ; preds = %.preheader, %.lr.ph139
  %.1138 = phi i32 [ %84, %.lr.ph139 ], [ 1, %.preheader ]
  %.4137 = phi i32 [ %83, %.lr.ph139 ], [ %21, %.preheader ]
  %79 = load i32, ptr @ett_nas_5gs_mm_sor, align 4
  %80 = tail call ptr (ptr, ptr, i32, i32, i32, ptr, ptr, ...) @proto_tree_add_subtree_format(ptr noundef %1, ptr noundef %0, i32 noundef %.4137, i32 noundef 5, i32 noundef %79, ptr noundef null, ptr noundef nonnull @.str.1726, i32 noundef %.1138)
  %81 = tail call i32 @dissect_e212_mcc_mnc(ptr noundef %0, ptr noundef %2, ptr noundef %80, i32 noundef %.4137, i32 noundef 0, i1 noundef zeroext true)
  tail call void @proto_tree_add_bitmask_list(ptr noundef %1, ptr noundef %0, i32 noundef %81, i32 noundef 1, ptr noundef nonnull @de_nas_5gs_mm_sor_transp_cont.flags_access_tech_1, i32 noundef 0)
  %82 = add i32 %81, 1
  tail call void @proto_tree_add_bitmask_list(ptr noundef %1, ptr noundef %0, i32 noundef %82, i32 noundef 1, ptr noundef nonnull @de_nas_5gs_mm_sor_transp_cont.flags_access_tech_2, i32 noundef 0)
  %83 = add i32 %81, 2
  %84 = add i32 %.1138, 1
  %85 = sub i32 %83, %3
  %86 = icmp ult i32 %85, %4
  br i1 %86, label %.lr.ph139, label %.loopexit, !llvm.loop !37

87:                                               ; preds = %7
  tail call void @proto_tree_add_bitmask_list(ptr noundef %1, ptr noundef %0, i32 noundef %3, i32 noundef 1, ptr noundef nonnull @de_nas_5gs_mm_sor_transp_cont.flags_dt1, i32 noundef 0)
  %88 = load i32, ptr @hf_nas_5gs_sor_mac_iue, align 4
  %89 = tail call ptr @proto_tree_add_item(ptr noundef %1, i32 noundef %88, ptr noundef %0, i32 noundef %14, i32 noundef 16, i32 noundef 0)
  br label %.loopexit

.loopexit:                                        ; preds = %.lr.ph139, %.preheader, %24, %78, %87
  %.5 = phi i32 [ %28, %24 ], [ %.3, %78 ], [ %15, %87 ], [ %21, %.preheader ], [ %83, %.lr.ph139 ]
  %90 = sub i32 %.5, %3
  %91 = icmp ugt i32 %4, %90
  br i1 %91, label %92, label %96

92:                                               ; preds = %.loopexit
  %93 = sub nuw i32 %4, %90
  %94 = call ptr @proto_tree_add_expert(ptr noundef %1, ptr noundef %2, ptr noundef nonnull @ei_nas_5gs_extraneous_data, ptr noundef %0, i32 noundef %.5, i32 noundef %93)
  %95 = add i32 %93, %.5
  %.pre143 = sub i32 %95, %3
  br label %96

96:                                               ; preds = %92, %.loopexit
  %.pre-phi = phi i32 [ %.pre143, %92 ], [ %90, %.loopexit ]
  %97 = trunc i32 %.pre-phi to i16
  ret i16 %97
}